target datalayout = "e-m:e-p270:32:32-p271:32:32-p272:64:64-i64:64-i128:128-f80:128-n8:16:32:64-S128"
target triple = "x86_64-pc-linux-gnu"

%struct.slurm_conf_t = type { i64, ptr, i16, ptr, ptr, ptr, ptr, ptr, i16, ptr, ptr, ptr, ptr, ptr, ptr, ptr, i16, ptr, ptr, ptr, ptr, i16, ptr, ptr, ptr, i64, ptr, ptr, ptr, ptr, i16, ptr, ptr, i16, i32, ptr, i32, ptr, i32, i32, ptr, ptr, i64, i64, ptr, i16, i16, ptr, i32, i32, ptr, i32, ptr, i32, i16, i16, i16, ptr, i16, i16, ptr, ptr, i32, i16, i16, ptr, i32, i16, ptr, ptr, ptr, ptr, i16, ptr, ptr, ptr, ptr, i32, ptr, ptr, ptr, ptr, i16, i16, ptr, i32, i32, i32, i16, i16, ptr, ptr, i16, ptr, ptr, i32, i32, i32, i32, i32, i64, i32, i32, i16, ptr, ptr, i32, ptr, ptr, ptr, i16, i32, ptr, ptr, i16, ptr, ptr, i32, i16, ptr, ptr, ptr, ptr, i32, i32, i16, i16, i32, ptr, i16, ptr, i32, i32, i32, i32, i32, i32, ptr, i16, ptr, ptr, i32, i16, ptr, i32, i16, i16, ptr, ptr, ptr, i16, ptr, ptr, ptr, ptr, i16, i16, ptr, i16, ptr, i16, ptr, i16, ptr, i16, ptr, ptr, ptr, ptr, i16, ptr, ptr, ptr, i32, ptr, i32, ptr, ptr, i16, ptr, ptr, i32, i16, ptr, ptr, i16, i16, ptr, i16, ptr, ptr, ptr, i32, ptr, i16, i16, ptr, ptr, ptr, ptr, ptr, ptr, ptr, ptr, i16, i32, i16, ptr, ptr, ptr, ptr, i32, ptr, ptr, ptr, i16, ptr, ptr, ptr, i16, ptr, i16, ptr, i16, i16, ptr }
%struct.addrinfo = type { i32, i32, i32, i32, i32, ptr, ptr, ptr }

@slurm_conf = external global %struct.slurm_conf_t, align 8
@.str.4 = private unnamed_addr constant [3 x i8] c"::\00", align 1
@.str.5 = private unnamed_addr constant [5 x i8] c"0::0\00", align 1
@.str.6 = private unnamed_addr constant [8 x i8] c"0.0.0.0\00", align 1
@.str.7 = private unnamed_addr constant [4 x i8] c"::1\00", align 1
@.str.8 = private unnamed_addr constant [5 x i8] c"0::1\00", align 1

; Function Attrs: nounwind uwtable
define dso_local ptr @xgetaddrinfo(ptr noundef %0, ptr noundef %1) #0 {
  %3 = alloca ptr, align 8
  %4 = alloca ptr, align 8
  %5 = alloca %struct.addrinfo, align 8
  %6 = alloca i8, align 1
  %7 = alloca i8, align 1
  store ptr %0, ptr %3, align 8
  store ptr %1, ptr %4, align 8
  call void @llvm.lifetime.start.p0(i64 48, ptr %5) #9
  call void @llvm.lifetime.start.p0(i64 1, ptr %6) #9
  %8 = load i32, ptr getelementptr inbounds nuw (%struct.slurm_conf_t, ptr @slurm_conf, i32 0, i32 34), align 4
  %9 = zext i32 %8 to i64
  %10 = and i64 %9, 64
  %11 = icmp ne i64 %10, 0
  %12 = zext i1 %11 to i8
  store i8 %12, ptr %6, align 1
  call void @llvm.lifetime.start.p0(i64 1, ptr %7) #9
  %13 = load i32, ptr getelementptr inbounds nuw (%struct.slurm_conf_t, ptr @slurm_conf, i32 0, i32 34), align 4
  %14 = zext i32 %13 to i64
  %15 = and i64 %14, 128
  %16 = icmp ne i64 %15, 0
  %17 = zext i1 %16 to i8
  store i8 %17, ptr %7, align 1
  call void @llvm.memset.p0.i64(ptr align 8 %5, i8 0, i64 48, i1 false)
  %18 = load i8, ptr %6, align 1, !range !14, !noundef !15
  %19 = trunc i8 %18 to i1
  br i1 %19, label %20, label %25

20:                                               ; preds = %2
  %21 = load i8, ptr %7, align 1, !range !14, !noundef !15
  %22 = trunc i8 %21 to i1
  br i1 %22, label %25, label %23

23:                                               ; preds = %20
  %24 = getelementptr inbounds nuw %struct.addrinfo, ptr %5, i32 0, i32 1
  store i32 2, ptr %24, align 4
  br label %36

25:                                               ; preds = %20, %2
  %26 = load i8, ptr %6, align 1, !range !14, !noundef !15
  %27 = trunc i8 %26 to i1
  br i1 %27, label %33, label %28

28:                                               ; preds = %25
  %29 = load i8, ptr %7, align 1, !range !14, !noundef !15
  %30 = trunc i8 %29 to i1
  br i1 %30, label %31, label %33

31:                                               ; preds = %28
  %32 = getelementptr inbounds nuw %struct.addrinfo, ptr %5, i32 0, i32 1
  store i32 10, ptr %32, align 4
  br label %35

33:                                               ; preds = %28, %25
  %34 = getelementptr inbounds nuw %struct.addrinfo, ptr %5, i32 0, i32 1
  store i32 0, ptr %34, align 4
  br label %35

35:                                               ; preds = %33, %31
  br label %36

36:                                               ; preds = %35, %23
  %37 = load ptr, ptr %3, align 8
  %38 = call i32 @xstrcmp(ptr noundef @.str.4, ptr noundef %37)
  %39 = icmp ne i32 %38, 0
  br i1 %39, label %51, label %40

40:                                               ; preds = %36
  %41 = load i8, ptr %7, align 1, !range !14, !noundef !15
  %42 = trunc i8 %41 to i1
  br i1 %42, label %43, label %44

43:                                               ; preds = %40
  store ptr @.str.5, ptr %3, align 8
  br label %50

44:                                               ; preds = %40
  %45 = load i8, ptr %6, align 1, !range !14, !noundef !15
  %46 = trunc i8 %45 to i1
  br i1 %46, label %47, label %48

47:                                               ; preds = %44
  store ptr @.str.6, ptr %3, align 8
  br label %49

48:                                               ; preds = %44
  store ptr null, ptr %3, align 8
  br label %49

49:                                               ; preds = %48, %47
  br label %50

50:                                               ; preds = %49, %43
  br label %51

51:                                               ; preds = %50, %36
  %52 = load i8, ptr %7, align 1, !range !14, !noundef !15
  %53 = trunc i8 %52 to i1
  br i1 %53, label %54, label %59

54:                                               ; preds = %51
  %55 = load ptr, ptr %3, align 8
  %56 = call i32 @xstrcmp(ptr noundef @.str.7, ptr noundef %55)
  %57 = icmp ne i32 %56, 0
  br i1 %57, label %59, label %58

58:                                               ; preds = %54
  store ptr @.str.8, ptr %3, align 8
  br label %59

59:                                               ; preds = %58, %54, %51
  %60 = getelementptr inbounds nuw %struct.addrinfo, ptr %5, i32 0, i32 0
  store i32 1057, ptr %60, align 8
  %61 = load ptr, ptr %3, align 8
  %62 = icmp ne ptr %61, null
  br i1 %62, label %63, label %67

63:                                               ; preds = %59
  %64 = getelementptr inbounds nuw %struct.addrinfo, ptr %5, i32 0, i32 0
  %65 = load i32, ptr %64, align 8
  %66 = or i32 %65, 2
  store i32 %66, ptr %64, align 8
  br label %67

67:                                               ; preds = %63, %59
  %68 = getelementptr inbounds nuw %struct.addrinfo, ptr %5, i32 0, i32 2
  store i32 1, ptr %68, align 8
  %69 = load ptr, ptr %3, align 8
  %70 = load ptr, ptr %4, align 8
  %71 = call ptr @_xgetaddrinfo(ptr noundef %69, ptr noundef %70, ptr noundef %5)
  call void @llvm.lifetime.end.p0(i64 1, ptr %7) #9
  call void @llvm.lifetime.end.p0(i64 1, ptr %6) #9
  call void @llvm.lifetime.end.p0(i64 48, ptr %5) #9
  ret ptr %71
}