; Function Attrs: nounwind uwtable
define dso_local ptr @xgetaddrinfo(ptr noundef %0, ptr noundef %1) local_unnamed_addr #0 {
  %3 = alloca %struct.addrinfo, align 8
  call void @llvm.lifetime.start.p0(i64 48, ptr nonnull %3) #14
  %4 = load i32, ptr getelementptr inbounds nuw (i8, ptr @slurm_conf, i64 268), align 4
  %5 = zext i32 %4 to i64
  %6 = and i64 %5, 64
  %.not.not = icmp eq i64 %6, 0
  %7 = and i64 %5, 128
  %.not13 = icmp eq i64 %7, 0
  call void @llvm.memset.p0.i64(ptr noundef nonnull align 8 dereferenceable(48) %3, i8 0, i64 48, i1 false)
  %8 = trunc i32 %4 to i8
  %trunc = and i8 %8, -64
  switch i8 %trunc, label %11 [
    i8 64, label %.sink.split
    i8 -128, label %9
  ]

9:                                                ; preds = %2
  br label %.sink.split

.sink.split:                                      ; preds = %2, %9
  %.sink = phi i32 [ 10, %9 ], [ 2, %2 ]
  %10 = getelementptr inbounds nuw i8, ptr %3, i64 4
  store i32 %.sink, ptr %10, align 4
  br label %11

11:                                               ; preds = %.sink.split, %2
  %12 = tail call i32 @xstrcmp(ptr noundef nonnull @.str.4, ptr noundef %0) #14
  %.not14 = icmp eq i32 %12, 0
  %..str.6 = select i1 %.not.not, ptr null, ptr @.str.6
  %spec.select18 = select i1 %.not13, ptr %..str.6, ptr @.str.5
  %.0 = select i1 %.not14, ptr %spec.select18, ptr %0
  br i1 %.not13, label %15, label %13

13:                                               ; preds = %11
  %14 = tail call i32 @xstrcmp(ptr noundef nonnull @.str.7, ptr noundef %.0) #14
  %.not15 = icmp eq i32 %14, 0
  br i1 %.not15, label %.split, label %15

15:                                               ; preds = %13, %11
  %.not16 = icmp eq ptr %.0, null
  %spec.select = select i1 %.not16, i32 1057, i32 1059
  br label %.split

.split:                                           ; preds = %15, %13
  %storemerge = phi i32 [ 1059, %13 ], [ %spec.select, %15 ]
  %.sink24 = phi ptr [ @.str.8, %13 ], [ %.0, %15 ]
  store i32 %storemerge, ptr %3, align 8
  %16 = getelementptr inbounds nuw i8, ptr %3, i64 8
  store i32 1, ptr %16, align 8
  %17 = call fastcc ptr @_xgetaddrinfo(ptr noundef %.sink24, ptr noundef %1, ptr noundef %3)
  call void @llvm.lifetime.end.p0(i64 48, ptr nonnull %3) #14
  ret ptr %17
}